; Function Attrs: nounwind uwtable
define internal i32 @dissect_h248_TerminationID(i1 noundef zeroext %0, ptr noundef %1, i32 noundef %2, ptr noundef %3, ptr noundef %4, i32 noundef %5) #0 {
  %7 = getelementptr inbounds nuw i8, ptr %3, i64 16
  %8 = load ptr, ptr %7, align 8
  %9 = getelementptr inbounds nuw i8, ptr %8, i64 408
  %10 = load ptr, ptr %9, align 8
  %11 = tail call noalias ptr @wmem_alloc0(ptr noundef %10, i64 noundef 48) #7
  store ptr %11, ptr getelementptr inbounds nuw (i8, ptr @curr_info, i64 24), align 8
  store i32 0, ptr @wild_term, align 4
  %12 = load i32, ptr @ett_h248_TerminationID, align 4
  %13 = tail call i32 @dissect_ber_sequence(i1 noundef zeroext %0, ptr noundef %3, ptr noundef %4, ptr noundef %1, i32 noundef %2, ptr noundef nonnull @TerminationID_sequence, i32 noundef %5, i32 noundef %12) #7
  ret i32 %13
}